target datalayout = "e-m:e-p270:32:32-p271:32:32-p272:64:64-i64:64-i128:128-f80:128-n8:16:32:64-S128"
target triple = "x86_64-pc-linux-gnu"

%struct.sockaddr_in6 = type { i16, i16, i32, %struct.in6_addr, i32 }
%struct.in6_addr = type { %union.anon.8 }
%union.anon.8 = type { [4 x i32] }
%struct._mc_resp = type { ptr, ptr, i32, i32, ptr, ptr, ptr, [4 x %struct.iovec], i32, i8, i8, i8, i8, i8, i16, i16, i16, %struct.sockaddr_in6, i32, [1024 x i8] }
%struct.iovec = type { ptr, i64 }

; Function Attrs: nounwind uwtable
define dso_local void @resp_reset(ptr noundef %0) #0 {
  %2 = alloca ptr, align 8
  store ptr %0, ptr %2, align 8, !tbaa !132
  %3 = load ptr, ptr %2, align 8, !tbaa !132
  %4 = getelementptr inbounds nuw %struct._mc_resp, ptr %3, i32 0, i32 6
  %5 = load ptr, ptr %4, align 8, !tbaa !139
  %6 = icmp ne ptr %5, null
  br i1 %6, label %7, label %13

7:                                                ; preds = %1
  %8 = load ptr, ptr %2, align 8, !tbaa !132
  %9 = getelementptr inbounds nuw %struct._mc_resp, ptr %8, i32 0, i32 6
  %10 = load ptr, ptr %9, align 8, !tbaa !139
  call void @item_remove(ptr noundef %10)
  %11 = load ptr, ptr %2, align 8, !tbaa !132
  %12 = getelementptr inbounds nuw %struct._mc_resp, ptr %11, i32 0, i32 6
  store ptr null, ptr %12, align 8, !tbaa !139
  br label %13

13:                                               ; preds = %7, %1
  %14 = load ptr, ptr %2, align 8, !tbaa !132
  %15 = getelementptr inbounds nuw %struct._mc_resp, ptr %14, i32 0, i32 4
  %16 = load ptr, ptr %15, align 8, !tbaa !140
  %17 = icmp ne ptr %16, null
  br i1 %17, label %18, label %24

18:                                               ; preds = %13
  %19 = load ptr, ptr %2, align 8, !tbaa !132
  %20 = getelementptr inbounds nuw %struct._mc_resp, ptr %19, i32 0, i32 4
  %21 = load ptr, ptr %20, align 8, !tbaa !140
  call void @free(ptr noundef %21) #15
  %22 = load ptr, ptr %2, align 8, !tbaa !132
  %23 = getelementptr inbounds nuw %struct._mc_resp, ptr %22, i32 0, i32 4
  store ptr null, ptr %23, align 8, !tbaa !140
  br label %24

24:                                               ; preds = %18, %13
  %25 = load ptr, ptr %2, align 8, !tbaa !132
  %26 = getelementptr inbounds nuw %struct._mc_resp, ptr %25, i32 0, i32 2
  store i32 0, ptr %26, align 8, !tbaa !146
  %27 = load ptr, ptr %2, align 8, !tbaa !132
  %28 = getelementptr inbounds nuw %struct._mc_resp, ptr %27, i32 0, i32 3
  store i32 0, ptr %28, align 4, !tbaa !147
  %29 = load ptr, ptr %2, align 8, !tbaa !132
  %30 = getelementptr inbounds nuw %struct._mc_resp, ptr %29, i32 0, i32 9
  store i8 0, ptr %30, align 4, !tbaa !148
  %31 = load ptr, ptr %2, align 8, !tbaa !132
  %32 = getelementptr inbounds nuw %struct._mc_resp, ptr %31, i32 0, i32 10
  store i8 0, ptr %32, align 1, !tbaa !149
  %33 = load ptr, ptr %2, align 8, !tbaa !132
  %34 = getelementptr inbounds nuw %struct._mc_resp, ptr %33, i32 0, i32 8
  store i32 0, ptr %34, align 8, !tbaa !150
  %35 = load ptr, ptr %2, align 8, !tbaa !132
  %36 = getelementptr inbounds nuw %struct._mc_resp, ptr %35, i32 0, i32 11
  store i8 0, ptr %36, align 2, !tbaa !151
  ret void
}