; Function Attrs: nounwind uwtable
define dso_local void @resp_reset(ptr noundef captures(none) initializes((16, 24), (112, 119)) %0) local_unnamed_addr #1 {
  %2 = getelementptr inbounds nuw i8, ptr %0, i64 40
  %3 = load ptr, ptr %2, align 8, !tbaa !111
  %.not = icmp eq ptr %3, null
  br i1 %.not, label %5, label %4

4:                                                ; preds = %1
  tail call void @item_remove(ptr noundef nonnull %3) #34
  store ptr null, ptr %2, align 8, !tbaa !111
  br label %5

5:                                                ; preds = %4, %1
  %6 = getelementptr inbounds nuw i8, ptr %0, i64 24
  %7 = load ptr, ptr %6, align 8, !tbaa !112
  %.not13 = icmp eq ptr %7, null
  br i1 %.not13, label %9, label %8

8:                                                ; preds = %5
  tail call void @free(ptr noundef nonnull %7) #34
  store ptr null, ptr %6, align 8, !tbaa !112
  br label %9

9:                                                ; preds = %8, %5
  %10 = getelementptr inbounds nuw i8, ptr %0, i64 16
  store i32 0, ptr %10, align 8, !tbaa !161
  %11 = getelementptr inbounds nuw i8, ptr %0, i64 20
  store i32 0, ptr %11, align 4, !tbaa !126
  %12 = getelementptr inbounds nuw i8, ptr %0, i64 112
  tail call void @llvm.memset.p0.i64(ptr noundef nonnull align 8 dereferenceable(7) %12, i8 0, i64 7, i1 false)
  ret void
}